(lp0
F1.0239999999999902e-05
aF1.024000000000127e-05
aF1.0240000000001637e-05
aF1.0240000000001637e-05
aF1.0240000000001637e-05
aF1.0239999999995552e-05
aF1.0239999999994698e-05
aF1.0239999999994698e-05
aF1.0239999999994698e-05
aF1.0239999999994698e-05
aF1.0239999999994698e-05
aF1.0239999999994698e-05
aF1.0239999999994698e-05
aF1.0239999999994698e-05
aF1.0239999999994698e-05
aF1.0239999999994698e-05
aF1.0239999999994698e-05
aF1.0239999999994698e-05
aF1.0239999999994698e-05
aF1.0239999999994698e-05
aF1.0239999999994725e-05
aF1.0239999999994698e-05
aF1.0239999999994698e-05
aF1.0239999999994698e-05
aF1.0239999999994698e-05
aF1.0239999999994698e-05
aF1.0239999999994698e-05
aF1.0239999999994698e-05
aF1.0239999999994698e-05
aF1.0239999999994698e-05
aF1.0239999999994698e-05
aF1.0239999999994698e-05
aF1.0239999999994698e-05
aF1.0239999999994698e-05
aF1.0239999999994698e-05
aF1.0239999999994698e-05
aF1.0239999999994698e-05
aF1.0239999999994698e-05
aF1.0239999999994698e-05
aF1.0239999999994698e-05
aF1.0239999999994698e-05
aF1.0240000000004781e-05
aF1.0240000000050209e-05
aF1.0240000000050209e-05
aF1.0240000000050209e-05
aF1.0240000000050209e-05
aF1.0240000000050209e-05
aF1.0240000000050209e-05
aF1.0240000000050209e-05
aF1.0240000000050209e-05
aF1.0240000000050209e-05
aF1.0240000000050209e-05
aF1.0240000000050209e-05
aF1.0240000000050209e-05
aF1.0240000000050209e-05
aF1.0240000000050209e-05
aF1.0240000000050209e-05
aF1.0240000000050209e-05
aF1.0240000000050209e-05
aF1.0240000000050209e-05
aF1.0240000000050209e-05
aF1.0240000000050209e-05
aF1.0240000000050209e-05
aF1.0240000000050209e-05
aF1.0240000000050209e-05
aF1.0240000000050209e-05
aF1.0240000000050209e-05
aF1.0240000000050209e-05
aF1.0240000000050209e-05
aF1.0240000000050209e-05
aF1.0240000000050209e-05
aF1.0240000000050209e-05
aF1.0240000000050209e-05
aF1.0240000000050209e-05
aF1.0240000000050209e-05
aF1.0240000000050209e-05
aF1.0240000000050209e-05
aF1.0240000000050209e-05
aF1.0240000000050209e-05
aF1.0240000000050209e-05
aF1.0240000000050209e-05
aF1.0240000000050209e-05
aF1.0240000000050209e-05
aF1.0240000000009877e-05
aF1.0239999999939187e-05
a.