(lp0
F2.0710000000000952e-05
aF2.071000000000331e-05
aF2.0709999999999847e-05
aF2.0709999999989276e-05
aF2.0709999999989276e-05
aF2.0709999999989276e-05
aF2.0709999999989276e-05
aF2.0709999999989276e-05
aF2.0709999999989276e-05
aF2.0709999999989276e-05
aF2.0709999999989276e-05
aF2.0709999999989304e-05
aF2.0709999999989276e-05
aF2.0709999999989276e-05
aF2.0709999999989276e-05
aF2.0709999999989276e-05
aF2.0709999999989276e-05
aF2.0709999999989276e-05
aF2.0709999999989276e-05
aF2.0709999999989276e-05
aF2.0709999999989276e-05
aF2.0709999999989276e-05
aF2.071000000009157e-05
aF2.0710000000101546e-05
aF2.0710000000101546e-05
aF2.0710000000101546e-05
aF2.0710000000101546e-05
aF2.0710000000101546e-05
aF2.0710000000101546e-05
aF2.0710000000101546e-05
aF2.0710000000101546e-05
aF2.0710000000101546e-05
aF2.0710000000101546e-05
aF2.0710000000101546e-05
aF2.0710000000101546e-05
aF2.0710000000101546e-05
aF2.0710000000101546e-05
aF2.0710000000101546e-05
aF2.0710000000101546e-05
aF2.0710000000101546e-05
aF2.0710000000101546e-05
aF2.0710000000101546e-05
aF2.0710000000101546e-05
aF2.0710000000101546e-05
aF2.0709999999931434e-05
a.