(lp0
F5.000000000000039e-07
aF2.0000000000000685e-06
aF5.000000000000039e-07
aF5.000000000000039e-07
aF9.999999999999934e-07
aF5.000000000000039e-07
aF5.000000000000039e-07
aF5.000000000000039e-07
aF5.000000000000039e-07
aF5.000000000000039e-07
a.